target datalayout = "e-m:e-p270:32:32-p271:32:32-p272:64:64-i64:64-i128:128-f80:128-n8:16:32:64-S128"
target triple = "x86_64-pc-linux-gnu"

%struct.FormData_pg_proc = type { i32, %struct.nameData, i32, i32, i32, float, float, i32, i32, i8, i8, i8, i8, i8, i8, i8, i16, i16, i32, %struct.oidvector }
%struct.nameData = type { [64 x i8] }
%struct.oidvector = type { i32, i32, i32, i32, i32, i32, [0 x i32] }
%struct.HeapTupleHeaderData = type { %union.anon, %struct.ItemPointerData, i16, i16, i8, [0 x i8] }
%union.anon = type { %struct.HeapTupleFields }
%struct.HeapTupleFields = type { i32, i32, %union.anon.0 }
%union.anon.0 = type { i32 }
%struct.ItemPointerData = type { %struct.BlockIdData, i16 }
%struct.BlockIdData = type { i16, i16 }
%struct.ArrayType = type { i32, i32, i32, i32 }
%struct.HeapTupleData = type { i32, %struct.ItemPointerData, i32, ptr }

@.str.1 = private unnamed_addr constant [10 x i8] c"funcapi.c\00", align 1
@.str.8 = private unnamed_addr constant [59 x i8] c"proallargtypes is not a 1-D Oid array or it contains nulls\00", align 1
@__func__.get_func_arg_info = private unnamed_addr constant [18 x i8] c"get_func_arg_info\00", align 1
@.str.9 = private unnamed_addr constant [80 x i8] c"proargnames must have the same number of elements as the function has arguments\00", align 1
@.str.10 = private unnamed_addr constant [70 x i8] c"proargmodes is not a 1-D char array of length %d or it contains nulls\00", align 1

; Function Attrs: inlinehint nounwind uwtable
define internal ptr @DatumGetPointer(i64 noundef %0) #4 {
  %2 = alloca i64, align 8
  store i64 %0, ptr %2, align 8
  %3 = load i64, ptr %2, align 8
  %4 = inttoptr i64 %3 to ptr
  ret ptr %4
}

; Function Attrs: inlinehint nounwind uwtable
define internal ptr @GETSTRUCT(ptr noundef %0) #4 {
  %2 = alloca ptr, align 8
  store ptr %0, ptr %2, align 8
  %3 = load ptr, ptr %2, align 8
  %4 = getelementptr inbounds nuw %struct.HeapTupleData, ptr %3, i32 0, i32 3
  %5 = load ptr, ptr %4, align 8
  %6 = load ptr, ptr %2, align 8
  %7 = getelementptr inbounds nuw %struct.HeapTupleData, ptr %6, i32 0, i32 3
  %8 = load ptr, ptr %7, align 8
  %9 = getelementptr inbounds nuw %struct.HeapTupleHeaderData, ptr %8, i32 0, i32 4
  %10 = load i8, ptr %9, align 2
  %11 = zext i8 %10 to i32
  %12 = sext i32 %11 to i64
  %13 = getelementptr inbounds i8, ptr %5, i64 %12
  ret ptr %13
}

; Function Attrs: nounwind uwtable
define dso_local i32 @get_func_arg_info(ptr noundef %0, ptr noundef %1, ptr noundef %2, ptr noundef %3) #0 {
  %5 = alloca ptr, align 8
  %6 = alloca ptr, align 8
  %7 = alloca ptr, align 8
  %8 = alloca ptr, align 8
  %9 = alloca ptr, align 8
  %10 = alloca i64, align 8
  %11 = alloca i64, align 8
  %12 = alloca i64, align 8
  %13 = alloca i8, align 1
  %14 = alloca ptr, align 8
  %15 = alloca i32, align 4
  %16 = alloca ptr, align 8
  %17 = alloca i32, align 4
  %18 = alloca i32, align 4
  store ptr %0, ptr %5, align 8
  store ptr %1, ptr %6, align 8
  store ptr %2, ptr %7, align 8
  store ptr %3, ptr %8, align 8
  call void @llvm.lifetime.start.p0(i64 8, ptr %9) #7
  %19 = load ptr, ptr %5, align 8
  %20 = call ptr @GETSTRUCT(ptr noundef %19)
  store ptr %20, ptr %9, align 8
  call void @llvm.lifetime.start.p0(i64 8, ptr %10) #7
  call void @llvm.lifetime.start.p0(i64 8, ptr %11) #7
  call void @llvm.lifetime.start.p0(i64 8, ptr %12) #7
  call void @llvm.lifetime.start.p0(i64 1, ptr %13) #7
  call void @llvm.lifetime.start.p0(i64 8, ptr %14) #7
  call void @llvm.lifetime.start.p0(i64 4, ptr %15) #7
  call void @llvm.lifetime.start.p0(i64 8, ptr %16) #7
  call void @llvm.lifetime.start.p0(i64 4, ptr %17) #7
  call void @llvm.lifetime.start.p0(i64 4, ptr %18) #7
  %21 = load ptr, ptr %5, align 8
  %22 = call i64 @SysCacheGetAttr(i32 noundef 47, ptr noundef %21, i16 noundef signext 21, ptr noundef %13)
  store i64 %22, ptr %10, align 8
  %23 = load i8, ptr %13, align 1, !range !4, !noundef !5
  %24 = trunc i8 %23 to i1
  br i1 %24, label %94, label %25

25:                                               ; preds = %4
  %26 = load i64, ptr %10, align 8
  %27 = call ptr @DatumGetPointer(i64 noundef %26)
  %28 = call ptr @pg_detoast_datum(ptr noundef %27)
  store ptr %28, ptr %14, align 8
  %29 = load ptr, ptr %14, align 8
  %30 = getelementptr inbounds nuw i8, ptr %29, i64 16
  %31 = getelementptr inbounds i32, ptr %30, i64 0
  %32 = load i32, ptr %31, align 4
  store i32 %32, ptr %15, align 4
  %33 = load ptr, ptr %14, align 8
  %34 = getelementptr inbounds nuw %struct.ArrayType, ptr %33, i32 0, i32 1
  %35 = load i32, ptr %34, align 4
  %36 = icmp ne i32 %35, 1
  br i1 %36, label %50, label %37

37:                                               ; preds = %25
  %38 = load i32, ptr %15, align 4
  %39 = icmp slt i32 %38, 0
  br i1 %39, label %50, label %40

40:                                               ; preds = %37
  %41 = load ptr, ptr %14, align 8
  %42 = getelementptr inbounds nuw %struct.ArrayType, ptr %41, i32 0, i32 2
  %43 = load i32, ptr %42, align 4
  %44 = icmp ne i32 %43, 0
  br i1 %44, label %50, label %45

45:                                               ; preds = %40
  %46 = load ptr, ptr %14, align 8
  %47 = getelementptr inbounds nuw %struct.ArrayType, ptr %46, i32 0, i32 3
  %48 = load i32, ptr %47, align 4
  %49 = icmp ne i32 %48, 26
  br i1 %49, label %50, label %61

50:                                               ; preds = %45, %40, %37, %25
  br label %51

51:                                               ; preds = %50
  br i1 true, label %52, label %54

52:                                               ; preds = %51
  %53 = call zeroext i1 @errstart_cold(i32 noundef 21, ptr noundef null) #8
  br i1 %53, label %56, label %58

54:                                               ; preds = %51
  %55 = call zeroext i1 @errstart(i32 noundef 21, ptr noundef null)
  br i1 %55, label %56, label %58

56:                                               ; preds = %54, %52
  %57 = call i32 (ptr, ...) @errmsg_internal(ptr noundef @.str.8)
  call void @errfinish(ptr noundef @.str.1, i32 noundef 1411, ptr noundef @__func__.get_func_arg_info)
  br label %58

58:                                               ; preds = %56, %54, %52
  unreachable

59:                                               ; No predecessors!
  br label %60

60:                                               ; preds = %59
  br label %61

61:                                               ; preds = %60, %45
  %62 = load i32, ptr %15, align 4
  %63 = sext i32 %62 to i64
  %64 = mul i64 %63, 4
  %65 = call ptr @palloc(i64 noundef %64)
  %66 = load ptr, ptr %6, align 8
  store ptr %65, ptr %66, align 8
  %67 = load ptr, ptr %6, align 8
  %68 = load ptr, ptr %67, align 8
  %69 = load ptr, ptr %14, align 8
  %70 = load ptr, ptr %14, align 8
  %71 = getelementptr inbounds nuw %struct.ArrayType, ptr %70, i32 0, i32 2
  %72 = load i32, ptr %71, align 4
  %73 = icmp ne i32 %72, 0
  br i1 %73, label %74, label %79

74:                                               ; preds = %61
  %75 = load ptr, ptr %14, align 8
  %76 = getelementptr inbounds nuw %struct.ArrayType, ptr %75, i32 0, i32 2
  %77 = load i32, ptr %76, align 4
  %78 = sext i32 %77 to i64
  br label %88

79:                                               ; preds = %61
  %80 = load ptr, ptr %14, align 8
  %81 = getelementptr inbounds nuw %struct.ArrayType, ptr %80, i32 0, i32 1
  %82 = load i32, ptr %81, align 4
  %83 = sext i32 %82 to i64
  %84 = mul i64 8, %83
  %85 = add i64 16, %84
  %86 = add i64 %85, 7
  %87 = and i64 %86, -8
  br label %88

88:                                               ; preds = %79, %74
  %89 = phi i64 [ %78, %74 ], [ %87, %79 ]
  %90 = getelementptr inbounds nuw i8, ptr %69, i64 %89
  %91 = load i32, ptr %15, align 4
  %92 = sext i32 %91 to i64
  %93 = mul i64 %92, 4
  call void @llvm.memcpy.p0.p0.i64(ptr align 4 %68, ptr align 1 %90, i64 %93, i1 false)
  br label %113

94:                                               ; preds = %4
  %95 = load ptr, ptr %9, align 8
  %96 = getelementptr inbounds nuw %struct.FormData_pg_proc, ptr %95, i32 0, i32 19
  %97 = getelementptr inbounds nuw %struct.oidvector, ptr %96, i32 0, i32 4
  %98 = load i32, ptr %97, align 4
  store i32 %98, ptr %15, align 4
  %99 = load i32, ptr %15, align 4
  %100 = sext i32 %99 to i64
  %101 = mul i64 %100, 4
  %102 = call ptr @palloc(i64 noundef %101)
  %103 = load ptr, ptr %6, align 8
  store ptr %102, ptr %103, align 8
  %104 = load ptr, ptr %6, align 8
  %105 = load ptr, ptr %104, align 8
  %106 = load ptr, ptr %9, align 8
  %107 = getelementptr inbounds nuw %struct.FormData_pg_proc, ptr %106, i32 0, i32 19
  %108 = getelementptr inbounds nuw %struct.oidvector, ptr %107, i32 0, i32 6
  %109 = getelementptr inbounds [0 x i32], ptr %108, i64 0, i64 0
  %110 = load i32, ptr %15, align 4
  %111 = sext i32 %110 to i64
  %112 = mul i64 %111, 4
  call void @llvm.memcpy.p0.p0.i64(ptr align 4 %105, ptr align 4 %109, i64 %112, i1 false)
  br label %113

113:                                              ; preds = %94, %88
  %114 = load ptr, ptr %5, align 8
  %115 = call i64 @SysCacheGetAttr(i32 noundef 47, ptr noundef %114, i16 noundef signext 23, ptr noundef %13)
  store i64 %115, ptr %12, align 8
  %116 = load i8, ptr %13, align 1, !range !4, !noundef !5
  %117 = trunc i8 %116 to i1
  br i1 %117, label %118, label %120

118:                                              ; preds = %113
  %119 = load ptr, ptr %7, align 8
  store ptr null, ptr %119, align 8
  br label %165

120:                                              ; preds = %113
  %121 = load i64, ptr %12, align 8
  %122 = call ptr @DatumGetPointer(i64 noundef %121)
  %123 = call ptr @pg_detoast_datum(ptr noundef %122)
  call void @deconstruct_array_builtin(ptr noundef %123, i32 noundef 25, ptr noundef %16, ptr noundef null, ptr noundef %17)
  %124 = load i32, ptr %17, align 4
  %125 = load i32, ptr %15, align 4
  %126 = icmp ne i32 %124, %125
  br i1 %126, label %127, label %138

127:                                              ; preds = %120
  br label %128

128:                                              ; preds = %127
  br i1 true, label %129, label %131

129:                                              ; preds = %128
  %130 = call zeroext i1 @errstart_cold(i32 noundef 21, ptr noundef null) #8
  br i1 %130, label %133, label %135

131:                                              ; preds = %128
  %132 = call zeroext i1 @errstart(i32 noundef 21, ptr noundef null)
  br i1 %132, label %133, label %135

133:                                              ; preds = %131, %129
  %134 = call i32 (ptr, ...) @errmsg_internal(ptr noundef @.str.9)
  call void @errfinish(ptr noundef @.str.1, i32 noundef 1438, ptr noundef @__func__.get_func_arg_info)
  br label %135

135:                                              ; preds = %133, %131, %129
  unreachable

136:                                              ; No predecessors!
  br label %137

137:                                              ; preds = %136
  br label %138

138:                                              ; preds = %137, %120
  %139 = load i32, ptr %15, align 4
  %140 = sext i32 %139 to i64
  %141 = mul i64 8, %140
  %142 = call ptr @palloc(i64 noundef %141)
  %143 = load ptr, ptr %7, align 8
  store ptr %142, ptr %143, align 8
  store i32 0, ptr %18, align 4
  br label %144

144:                                              ; preds = %161, %138
  %145 = load i32, ptr %18, align 4
  %146 = load i32, ptr %15, align 4
  %147 = icmp slt i32 %145, %146
  br i1 %147, label %148, label %164

148:                                              ; preds = %144
  %149 = load ptr, ptr %16, align 8
  %150 = load i32, ptr %18, align 4
  %151 = sext i32 %150 to i64
  %152 = getelementptr inbounds i64, ptr %149, i64 %151
  %153 = load i64, ptr %152, align 8
  %154 = call ptr @DatumGetPointer(i64 noundef %153)
  %155 = call ptr @text_to_cstring(ptr noundef %154)
  %156 = load ptr, ptr %7, align 8
  %157 = load ptr, ptr %156, align 8
  %158 = load i32, ptr %18, align 4
  %159 = sext i32 %158 to i64
  %160 = getelementptr inbounds ptr, ptr %157, i64 %159
  store ptr %155, ptr %160, align 8
  br label %161

161:                                              ; preds = %148
  %162 = load i32, ptr %18, align 4
  %163 = add i32 %162, 1
  store i32 %163, ptr %18, align 4
  br label %144, !llvm.loop !10

164:                                              ; preds = %144
  br label %165

165:                                              ; preds = %164, %118
  %166 = load ptr, ptr %5, align 8
  %167 = call i64 @SysCacheGetAttr(i32 noundef 47, ptr noundef %166, i16 noundef signext 22, ptr noundef %13)
  store i64 %167, ptr %11, align 8
  %168 = load i8, ptr %13, align 1, !range !4, !noundef !5
  %169 = trunc i8 %168 to i1
  br i1 %169, label %170, label %172

170:                                              ; preds = %165
  %171 = load ptr, ptr %8, align 8
  store ptr null, ptr %171, align 8
  br label %242

172:                                              ; preds = %165
  %173 = load i64, ptr %11, align 8
  %174 = call ptr @DatumGetPointer(i64 noundef %173)
  %175 = call ptr @pg_detoast_datum(ptr noundef %174)
  store ptr %175, ptr %14, align 8
  %176 = load ptr, ptr %14, align 8
  %177 = getelementptr inbounds nuw %struct.ArrayType, ptr %176, i32 0, i32 1
  %178 = load i32, ptr %177, align 4
  %179 = icmp ne i32 %178, 1
  br i1 %179, label %197, label %180

180:                                              ; preds = %172
  %181 = load ptr, ptr %14, align 8
  %182 = getelementptr inbounds nuw i8, ptr %181, i64 16
  %183 = getelementptr inbounds i32, ptr %182, i64 0
  %184 = load i32, ptr %183, align 4
  %185 = load i32, ptr %15, align 4
  %186 = icmp ne i32 %184, %185
  br i1 %186, label %197, label %187

187:                                              ; preds = %180
  %188 = load ptr, ptr %14, align 8
  %189 = getelementptr inbounds nuw %struct.ArrayType, ptr %188, i32 0, i32 2
  %190 = load i32, ptr %189, align 4
  %191 = icmp ne i32 %190, 0
  br i1 %191, label %197, label %192

192:                                              ; preds = %187
  %193 = load ptr, ptr %14, align 8
  %194 = getelementptr inbounds nuw %struct.ArrayType, ptr %193, i32 0, i32 3
  %195 = load i32, ptr %194, align 4
  %196 = icmp ne i32 %195, 18
  br i1 %196, label %197, label %209

197:                                              ; preds = %192, %187, %180, %172
  br label %198

198:                                              ; preds = %197
  br i1 true, label %199, label %201

199:                                              ; preds = %198
  %200 = call zeroext i1 @errstart_cold(i32 noundef 21, ptr noundef null) #8
  br i1 %200, label %203, label %206

201:                                              ; preds = %198
  %202 = call zeroext i1 @errstart(i32 noundef 21, ptr noundef null)
  br i1 %202, label %203, label %206

203:                                              ; preds = %201, %199
  %204 = load i32, ptr %15, align 4
  %205 = call i32 (ptr, ...) @errmsg_internal(ptr noundef @.str.10, i32 noundef %204)
  call void @errfinish(ptr noundef @.str.1, i32 noundef 1458, ptr noundef @__func__.get_func_arg_info)
  br label %206

206:                                              ; preds = %203, %201, %199
  unreachable

207:                                              ; No predecessors!
  br label %208

208:                                              ; preds = %207
  br label %209

209:                                              ; preds = %208, %192
  %210 = load i32, ptr %15, align 4
  %211 = sext i32 %210 to i64
  %212 = mul i64 %211, 1
  %213 = call ptr @palloc(i64 noundef %212)
  %214 = load ptr, ptr %8, align 8
  store ptr %213, ptr %214, align 8
  %215 = load ptr, ptr %8, align 8
  %216 = load ptr, ptr %215, align 8
  %217 = load ptr, ptr %14, align 8
  %218 = load ptr, ptr %14, align 8
  %219 = getelementptr inbounds nuw %struct.ArrayType, ptr %218, i32 0, i32 2
  %220 = load i32, ptr %219, align 4
  %221 = icmp ne i32 %220, 0
  br i1 %221, label %222, label %227

222:                                              ; preds = %209
  %223 = load ptr, ptr %14, align 8
  %224 = getelementptr inbounds nuw %struct.ArrayType, ptr %223, i32 0, i32 2
  %225 = load i32, ptr %224, align 4
  %226 = sext i32 %225 to i64
  br label %236

227:                                              ; preds = %209
  %228 = load ptr, ptr %14, align 8
  %229 = getelementptr inbounds nuw %struct.ArrayType, ptr %228, i32 0, i32 1
  %230 = load i32, ptr %229, align 4
  %231 = sext i32 %230 to i64
  %232 = mul i64 8, %231
  %233 = add i64 16, %232
  %234 = add i64 %233, 7
  %235 = and i64 %234, -8
  br label %236

236:                                              ; preds = %227, %222
  %237 = phi i64 [ %226, %222 ], [ %235, %227 ]
  %238 = getelementptr inbounds nuw i8, ptr %217, i64 %237
  %239 = load i32, ptr %15, align 4
  %240 = sext i32 %239 to i64
  %241 = mul i64 %240, 1
  call void @llvm.memcpy.p0.p0.i64(ptr align 1 %216, ptr align 1 %238, i64 %241, i1 false)
  br label %242

242:                                              ; preds = %236, %170
  %243 = load i32, ptr %15, align 4
  call void @llvm.lifetime.end.p0(i64 4, ptr %18) #7
  call void @llvm.lifetime.end.p0(i64 4, ptr %17) #7
  call void @llvm.lifetime.end.p0(i64 8, ptr %16) #7
  call void @llvm.lifetime.end.p0(i64 4, ptr %15) #7
  call void @llvm.lifetime.end.p0(i64 8, ptr %14) #7
  call void @llvm.lifetime.end.p0(i64 1, ptr %13) #7
  call void @llvm.lifetime.end.p0(i64 8, ptr %12) #7
  call void @llvm.lifetime.end.p0(i64 8, ptr %11) #7
  call void @llvm.lifetime.end.p0(i64 8, ptr %10) #7
  call void @llvm.lifetime.end.p0(i64 8, ptr %9) #7
  ret i32 %243
}