; Function Attrs: nounwind uwtable
define dso_local i32 @get_func_arg_info(ptr noundef %0, ptr noundef writeonly captures(none) %1, ptr noundef captures(none) %2, ptr noundef writeonly captures(none) %3) local_unnamed_addr #0 {
  %5 = alloca i8, align 1
  %6 = alloca ptr, align 8
  %7 = alloca i32, align 4
  %8 = getelementptr i8, ptr %0, i64 16
  %.val = load ptr, ptr %8, align 8
  %9 = getelementptr inbounds nuw i8, ptr %.val, i64 22
  %10 = load i8, ptr %9, align 2
  call void @llvm.lifetime.start.p0(i64 1, ptr nonnull %5) #8
  call void @llvm.lifetime.start.p0(i64 8, ptr nonnull %6) #8
  call void @llvm.lifetime.start.p0(i64 4, ptr nonnull %7) #8
  %11 = call i64 @SysCacheGetAttr(i32 noundef 47, ptr noundef %0, i16 noundef signext 21, ptr noundef nonnull %5) #8
  %12 = load i8, ptr %5, align 1, !range !9, !noundef !10
  %13 = trunc nuw i8 %12 to i1
  br i1 %13, label %48, label %14

14:                                               ; preds = %4
  %15 = inttoptr i64 %11 to ptr
  %16 = call ptr @pg_detoast_datum(ptr noundef %15) #8
  %17 = getelementptr inbounds nuw i8, ptr %16, i64 16
  %18 = load i32, ptr %17, align 4
  %19 = getelementptr inbounds nuw i8, ptr %16, i64 4
  %20 = load i32, ptr %19, align 4
  %21 = icmp ne i32 %20, 1
  %22 = icmp slt i32 %18, 0
  %or.cond = select i1 %21, i1 true, i1 %22
  br i1 %or.cond, label %29, label %23

23:                                               ; preds = %14
  %24 = getelementptr inbounds nuw i8, ptr %16, i64 8
  %25 = load i32, ptr %24, align 4
  %.not = icmp eq i32 %25, 0
  br i1 %.not, label %26, label %29

26:                                               ; preds = %23
  %27 = getelementptr inbounds nuw i8, ptr %16, i64 12
  %28 = load i32, ptr %27, align 4
  %.not56 = icmp eq i32 %28, 26
  br i1 %.not56, label %32, label %29

29:                                               ; preds = %26, %23, %14
  %30 = call zeroext i1 @errstart_cold(i32 noundef 21, ptr noundef null) #9
  call void @llvm.assume(i1 %30)
  %31 = call i32 (ptr, ...) @errmsg_internal(ptr noundef nonnull @.str.8) #8
  call void @errfinish(ptr noundef nonnull @.str.1, i32 noundef 1411, ptr noundef nonnull @__func__.get_func_arg_info) #8
  unreachable

32:                                               ; preds = %26
  %33 = zext nneg i32 %18 to i64
  %34 = shl nuw nsw i64 %33, 2
  %35 = call ptr @palloc(i64 noundef %34) #8
  store ptr %35, ptr %1, align 8
  %36 = load i32, ptr %24, align 4
  %.not57 = icmp eq i32 %36, 0
  br i1 %.not57, label %39, label %37

37:                                               ; preds = %32
  %38 = sext i32 %36 to i64
  br label %45

39:                                               ; preds = %32
  %40 = load i32, ptr %19, align 4
  %41 = sext i32 %40 to i64
  %42 = shl nsw i64 %41, 3
  %43 = add nsw i64 %42, 23
  %44 = and i64 %43, -8
  br label %45

45:                                               ; preds = %39, %37
  %46 = phi i64 [ %38, %37 ], [ %44, %39 ]
  %47 = getelementptr inbounds nuw i8, ptr %16, i64 %46
  call void @llvm.memcpy.p0.p0.i64(ptr align 4 %35, ptr align 1 %47, i64 %34, i1 false)
  br label %57

48:                                               ; preds = %4
  %49 = zext i8 %10 to i64
  %50 = getelementptr inbounds nuw i8, ptr %.val, i64 %49
  %51 = getelementptr inbounds nuw i8, ptr %50, i64 128
  %52 = load i32, ptr %51, align 4
  %53 = sext i32 %52 to i64
  %54 = shl nsw i64 %53, 2
  %55 = call ptr @palloc(i64 noundef %54) #8
  store ptr %55, ptr %1, align 8
  %56 = getelementptr inbounds nuw i8, ptr %50, i64 136
  call void @llvm.memcpy.p0.p0.i64(ptr align 4 %55, ptr nonnull align 4 %56, i64 %54, i1 false)
  br label %57

57:                                               ; preds = %48, %45
  %.052 = phi i32 [ %52, %48 ], [ %18, %45 ]
  %58 = call i64 @SysCacheGetAttr(i32 noundef 47, ptr noundef nonnull %0, i16 noundef signext 23, ptr noundef nonnull %5) #8
  %59 = load i8, ptr %5, align 1, !range !9, !noundef !10
  %60 = trunc nuw i8 %59 to i1
  br i1 %60, label %61, label %62

61:                                               ; preds = %57
  store ptr null, ptr %2, align 8
  br label %.loopexit

62:                                               ; preds = %57
  %63 = inttoptr i64 %58 to ptr
  %64 = call ptr @pg_detoast_datum(ptr noundef %63) #8
  call void @deconstruct_array_builtin(ptr noundef %64, i32 noundef 25, ptr noundef nonnull %6, ptr noundef null, ptr noundef nonnull %7) #8
  %65 = load i32, ptr %7, align 4
  %.not58 = icmp eq i32 %65, %.052
  br i1 %.not58, label %69, label %66

66:                                               ; preds = %62
  %67 = call zeroext i1 @errstart_cold(i32 noundef 21, ptr noundef null) #9
  call void @llvm.assume(i1 %67)
  %68 = call i32 (ptr, ...) @errmsg_internal(ptr noundef nonnull @.str.9) #8
  call void @errfinish(ptr noundef nonnull @.str.1, i32 noundef 1438, ptr noundef nonnull @__func__.get_func_arg_info) #8
  unreachable

69:                                               ; preds = %62
  %70 = sext i32 %.052 to i64
  %71 = shl nsw i64 %70, 3
  %72 = call ptr @palloc(i64 noundef %71) #8
  store ptr %72, ptr %2, align 8
  %73 = icmp sgt i32 %.052, 0
  br i1 %73, label %.lr.ph.preheader, label %.loopexit

.lr.ph.preheader:                                 ; preds = %69
  %wide.trip.count = zext nneg i32 %.052 to i64
  br label %.lr.ph

.lr.ph:                                           ; preds = %.lr.ph.preheader, %.lr.ph
  %indvars.iv = phi i64 [ 0, %.lr.ph.preheader ], [ %indvars.iv.next, %.lr.ph ]
  %74 = load ptr, ptr %6, align 8
  %75 = getelementptr inbounds nuw i64, ptr %74, i64 %indvars.iv
  %76 = load i64, ptr %75, align 8
  %77 = inttoptr i64 %76 to ptr
  %78 = call ptr @text_to_cstring(ptr noundef %77) #8
  %79 = load ptr, ptr %2, align 8
  %80 = getelementptr inbounds nuw ptr, ptr %79, i64 %indvars.iv
  store ptr %78, ptr %80, align 8
  %indvars.iv.next = add nuw nsw i64 %indvars.iv, 1
  %exitcond.not = icmp eq i64 %indvars.iv.next, %wide.trip.count
  br i1 %exitcond.not, label %.loopexit, label %.lr.ph, !llvm.loop !13

.loopexit:                                        ; preds = %.lr.ph, %69, %61
  %81 = call i64 @SysCacheGetAttr(i32 noundef 47, ptr noundef nonnull %0, i16 noundef signext 22, ptr noundef nonnull %5) #8
  %82 = load i8, ptr %5, align 1, !range !9, !noundef !10
  %83 = trunc nuw i8 %82 to i1
  br i1 %83, label %84, label %85

84:                                               ; preds = %.loopexit
  store ptr null, ptr %3, align 8
  br label %117

85:                                               ; preds = %.loopexit
  %86 = inttoptr i64 %81 to ptr
  %87 = call ptr @pg_detoast_datum(ptr noundef %86) #8
  %88 = getelementptr inbounds nuw i8, ptr %87, i64 4
  %89 = load i32, ptr %88, align 4
  %.not59 = icmp eq i32 %89, 1
  br i1 %.not59, label %90, label %99

90:                                               ; preds = %85
  %91 = getelementptr inbounds nuw i8, ptr %87, i64 16
  %92 = load i32, ptr %91, align 4
  %.not60 = icmp eq i32 %92, %.052
  br i1 %.not60, label %93, label %99

93:                                               ; preds = %90
  %94 = getelementptr inbounds nuw i8, ptr %87, i64 8
  %95 = load i32, ptr %94, align 4
  %.not61 = icmp eq i32 %95, 0
  br i1 %.not61, label %96, label %99

96:                                               ; preds = %93
  %97 = getelementptr inbounds nuw i8, ptr %87, i64 12
  %98 = load i32, ptr %97, align 4
  %.not62 = icmp eq i32 %98, 18
  br i1 %.not62, label %102, label %99

99:                                               ; preds = %96, %93, %90, %85
  %100 = call zeroext i1 @errstart_cold(i32 noundef 21, ptr noundef null) #9
  call void @llvm.assume(i1 %100)
  %101 = call i32 (ptr, ...) @errmsg_internal(ptr noundef nonnull @.str.10, i32 noundef %.052) #8
  call void @errfinish(ptr noundef nonnull @.str.1, i32 noundef 1458, ptr noundef nonnull @__func__.get_func_arg_info) #8
  unreachable

102:                                              ; preds = %96
  %103 = sext i32 %.052 to i64
  %104 = call ptr @palloc(i64 noundef %103) #8
  store ptr %104, ptr %3, align 8
  %105 = load i32, ptr %94, align 4
  %.not63 = icmp eq i32 %105, 0
  br i1 %.not63, label %108, label %106

106:                                              ; preds = %102
  %107 = sext i32 %105 to i64
  br label %114

108:                                              ; preds = %102
  %109 = load i32, ptr %88, align 4
  %110 = sext i32 %109 to i64
  %111 = shl nsw i64 %110, 3
  %112 = add nsw i64 %111, 23
  %113 = and i64 %112, -8
  br label %114

114:                                              ; preds = %108, %106
  %115 = phi i64 [ %107, %106 ], [ %113, %108 ]
  %116 = getelementptr inbounds nuw i8, ptr %87, i64 %115
  call void @llvm.memcpy.p0.p0.i64(ptr align 1 %104, ptr align 1 %116, i64 %103, i1 false)
  br label %117

117:                                              ; preds = %114, %84
  call void @llvm.lifetime.end.p0(i64 4, ptr nonnull %7) #8
  call void @llvm.lifetime.end.p0(i64 8, ptr nonnull %6) #8
  call void @llvm.lifetime.end.p0(i64 1, ptr nonnull %5) #8
  ret i32 %.052
}